; Function Attrs: mustprogress nofree norecurse nosync nounwind willreturn memory(argmem: readwrite) uwtable
define dso_local void @archive_entry_fflags(ptr noundef readonly captures(none) %0, ptr noundef writeonly captures(none) initializes((0, 8)) %1, ptr noundef writeonly captures(none) initializes((0, 8)) %2) local_unnamed_addr #7 {
  %4 = getelementptr inbounds nuw i8, ptr %0, i64 304
  %5 = load i64, ptr %4, align 8, !tbaa !29
  store i64 %5, ptr %1, align 8, !tbaa !27
  %6 = getelementptr inbounds nuw i8, ptr %0, i64 312
  %7 = load i64, ptr %6, align 8, !tbaa !30
  store i64 %7, ptr %2, align 8, !tbaa !27
  ret void
}